target datalayout = "e-m:e-p270:32:32-p271:32:32-p272:64:64-i64:64-i128:128-f80:128-n8:16:32:64-S128"
target triple = "x86_64-pc-linux-gnu"

%struct.object_id = type { [32 x i8], i32 }
%struct.strbuf = type { i64, i64, ptr }
%struct.object_directory = type { ptr, [8 x i32], ptr, ptr, i32, i32, ptr }

@.str.10 = private unnamed_addr constant [14 x i8] c"object-file.c\00", align 1
@__const.odb_loose_cache.buf = private unnamed_addr constant %struct.strbuf { i64 0, i64 0, ptr @strbuf_slopbuf }, align 8
@.str.48 = private unnamed_addr constant [23 x i8] c"subdir_nr out of range\00", align 1
@.str.79 = private unnamed_addr constant [27 x i8] c"size_t overflow: %lu * %lu\00", align 1

; Function Attrs: inlinehint nounwind uwtable
define internal void @strbuf_addstr(ptr noundef %0, ptr noundef %1) #7 {
  %3 = alloca ptr, align 8
  %4 = alloca ptr, align 8
  store ptr %0, ptr %3, align 8, !tbaa !62
  store ptr %1, ptr %4, align 8, !tbaa !12
  %5 = load ptr, ptr %3, align 8, !tbaa !62
  %6 = load ptr, ptr %4, align 8, !tbaa !12
  %7 = load ptr, ptr %4, align 8, !tbaa !12
  %8 = call i64 @strlen(ptr noundef %7) #15
  call void @strbuf_add(ptr noundef %5, ptr noundef %6, i64 noundef %8)
  ret void
}

; Function Attrs: inlinehint nounwind uwtable
define internal i64 @st_mult(i64 noundef %0, i64 noundef %1) #7 {
  %3 = alloca i64, align 8
  %4 = alloca i64, align 8
  store i64 %0, ptr %3, align 8, !tbaa !10
  store i64 %1, ptr %4, align 8, !tbaa !10
  %5 = load i64, ptr %3, align 8, !tbaa !10
  %6 = icmp ne i64 %5, 0
  br i1 %6, label %7, label %15

7:                                                ; preds = %2
  %8 = load i64, ptr %4, align 8, !tbaa !10
  %9 = load i64, ptr %3, align 8, !tbaa !10
  %10 = udiv i64 -1, %9
  %11 = icmp ugt i64 %8, %10
  br i1 %11, label %12, label %15

12:                                               ; preds = %7
  %13 = load i64, ptr %3, align 8, !tbaa !10
  %14 = load i64, ptr %4, align 8, !tbaa !10
  call void (ptr, ...) @die(ptr noundef @.str.79, i64 noundef %13, i64 noundef %14) #13
  unreachable

15:                                               ; preds = %7, %2
  %16 = load i64, ptr %3, align 8, !tbaa !10
  %17 = load i64, ptr %4, align 8, !tbaa !10
  %18 = mul i64 %16, %17
  ret i64 %18
}

; Function Attrs: nounwind uwtable
define dso_local ptr @odb_loose_cache(ptr noundef %0, ptr noundef %1) #0 {
  %3 = alloca ptr, align 8
  %4 = alloca ptr, align 8
  %5 = alloca ptr, align 8
  %6 = alloca i32, align 4
  %7 = alloca %struct.strbuf, align 8
  %8 = alloca i64, align 8
  %9 = alloca i64, align 8
  %10 = alloca i64, align 8
  %11 = alloca ptr, align 8
  %12 = alloca i32, align 4
  store ptr %0, ptr %4, align 8, !tbaa !78
  store ptr %1, ptr %5, align 8, !tbaa !14
  call void @llvm.lifetime.start.p0(i64 4, ptr %6) #14
  %13 = load ptr, ptr %5, align 8, !tbaa !14
  %14 = getelementptr inbounds nuw %struct.object_id, ptr %13, i32 0, i32 0
  %15 = getelementptr inbounds [32 x i8], ptr %14, i64 0, i64 0
  %16 = load i8, ptr %15, align 4, !tbaa !58
  %17 = zext i8 %16 to i32
  store i32 %17, ptr %6, align 4, !tbaa !43
  call void @llvm.lifetime.start.p0(i64 24, ptr %7) #14
  call void @llvm.memcpy.p0.p0.i64(ptr align 8 %7, ptr align 8 @__const.odb_loose_cache.buf, i64 24, i1 false)
  call void @llvm.lifetime.start.p0(i64 8, ptr %8) #14
  store i64 32, ptr %8, align 8, !tbaa !10
  call void @llvm.lifetime.start.p0(i64 8, ptr %9) #14
  %18 = load i32, ptr %6, align 4, !tbaa !43
  %19 = sext i32 %18 to i64
  %20 = load i64, ptr %8, align 8, !tbaa !10
  %21 = udiv i64 %19, %20
  store i64 %21, ptr %9, align 8, !tbaa !10
  call void @llvm.lifetime.start.p0(i64 8, ptr %10) #14
  %22 = load i32, ptr %6, align 4, !tbaa !43
  %23 = sext i32 %22 to i64
  %24 = load i64, ptr %8, align 8, !tbaa !10
  %25 = urem i64 %23, %24
  %26 = shl i64 1, %25
  store i64 %26, ptr %10, align 8, !tbaa !10
  call void @llvm.lifetime.start.p0(i64 8, ptr %11) #14
  %27 = load i32, ptr %6, align 4, !tbaa !43
  %28 = icmp slt i32 %27, 0
  br i1 %28, label %33, label %29

29:                                               ; preds = %2
  %30 = load i32, ptr %6, align 4, !tbaa !43
  %31 = sext i32 %30 to i64
  %32 = icmp uge i64 %31, 256
  br i1 %32, label %33, label %34

33:                                               ; preds = %29, %2
  call void (ptr, i32, ptr, ...) @BUG_fl(ptr noundef @.str.10, i32 noundef 3016, ptr noundef @.str.48) #13
  unreachable

34:                                               ; preds = %29
  %35 = load ptr, ptr %4, align 8, !tbaa !78
  %36 = getelementptr inbounds nuw %struct.object_directory, ptr %35, i32 0, i32 1
  %37 = load i64, ptr %9, align 8, !tbaa !10
  %38 = getelementptr inbounds nuw [8 x i32], ptr %36, i64 0, i64 %37
  store ptr %38, ptr %11, align 8, !tbaa !171
  %39 = load ptr, ptr %11, align 8, !tbaa !171
  %40 = load i32, ptr %39, align 4, !tbaa !43
  %41 = zext i32 %40 to i64
  %42 = load i64, ptr %10, align 8, !tbaa !10
  %43 = and i64 %41, %42
  %44 = icmp ne i64 %43, 0
  br i1 %44, label %45, label %49

45:                                               ; preds = %34
  %46 = load ptr, ptr %4, align 8, !tbaa !78
  %47 = getelementptr inbounds nuw %struct.object_directory, ptr %46, i32 0, i32 2
  %48 = load ptr, ptr %47, align 8, !tbaa !194
  store ptr %48, ptr %3, align 8
  store i32 1, ptr %12, align 4
  br label %80

49:                                               ; preds = %34
  %50 = load ptr, ptr %4, align 8, !tbaa !78
  %51 = getelementptr inbounds nuw %struct.object_directory, ptr %50, i32 0, i32 2
  %52 = load ptr, ptr %51, align 8, !tbaa !194
  %53 = icmp ne ptr %52, null
  br i1 %53, label %62, label %54

54:                                               ; preds = %49
  %55 = call i64 @st_mult(i64 noundef 32, i64 noundef 1)
  %56 = call ptr @xmalloc(i64 noundef %55)
  %57 = load ptr, ptr %4, align 8, !tbaa !78
  %58 = getelementptr inbounds nuw %struct.object_directory, ptr %57, i32 0, i32 2
  store ptr %56, ptr %58, align 8, !tbaa !194
  %59 = load ptr, ptr %4, align 8, !tbaa !78
  %60 = getelementptr inbounds nuw %struct.object_directory, ptr %59, i32 0, i32 2
  %61 = load ptr, ptr %60, align 8, !tbaa !194
  call void @oidtree_init(ptr noundef %61)
  br label %62

62:                                               ; preds = %54, %49
  %63 = load ptr, ptr %4, align 8, !tbaa !78
  %64 = getelementptr inbounds nuw %struct.object_directory, ptr %63, i32 0, i32 6
  %65 = load ptr, ptr %64, align 8, !tbaa !79
  call void @strbuf_addstr(ptr noundef %7, ptr noundef %65)
  %66 = load i32, ptr %6, align 4, !tbaa !43
  %67 = load ptr, ptr %4, align 8, !tbaa !78
  %68 = getelementptr inbounds nuw %struct.object_directory, ptr %67, i32 0, i32 2
  %69 = load ptr, ptr %68, align 8, !tbaa !194
  %70 = call i32 @for_each_file_in_obj_subdir(i32 noundef %66, ptr noundef %7, ptr noundef @append_loose_object, ptr noundef null, ptr noundef null, ptr noundef %69)
  %71 = load i64, ptr %10, align 8, !tbaa !10
  %72 = load ptr, ptr %11, align 8, !tbaa !171
  %73 = load i32, ptr %72, align 4, !tbaa !43
  %74 = zext i32 %73 to i64
  %75 = or i64 %74, %71
  %76 = trunc i64 %75 to i32
  store i32 %76, ptr %72, align 4, !tbaa !43
  call void @strbuf_release(ptr noundef %7)
  %77 = load ptr, ptr %4, align 8, !tbaa !78
  %78 = getelementptr inbounds nuw %struct.object_directory, ptr %77, i32 0, i32 2
  %79 = load ptr, ptr %78, align 8, !tbaa !194
  store ptr %79, ptr %3, align 8
  store i32 1, ptr %12, align 4
  br label %80

80:                                               ; preds = %62, %45
  call void @llvm.lifetime.end.p0(i64 8, ptr %11) #14
  call void @llvm.lifetime.end.p0(i64 8, ptr %10) #14
  call void @llvm.lifetime.end.p0(i64 8, ptr %9) #14
  call void @llvm.lifetime.end.p0(i64 8, ptr %8) #14
  call void @llvm.lifetime.end.p0(i64 24, ptr %7) #14
  call void @llvm.lifetime.end.p0(i64 4, ptr %6) #14
  %81 = load ptr, ptr %3, align 8
  ret ptr %81
}