; Function Attrs: nounwind uwtable
define dso_local ptr @odb_loose_cache(ptr noundef captures(none) %0, ptr noundef readonly captures(none) %1) local_unnamed_addr #1 {
  %3 = alloca %struct.strbuf, align 8
  %4 = load i8, ptr %1, align 4, !tbaa !51
  %5 = zext i8 %4 to i32
  call void @llvm.lifetime.start.p0(i64 24, ptr nonnull %3) #27
  call void @llvm.memcpy.p0.p0.i64(ptr noundef nonnull align 8 dereferenceable(24) %3, ptr noundef nonnull align 8 dereferenceable(24) @__const.index_mem.nbuf, i64 24, i1 false)
  %6 = zext i8 %4 to i64
  %7 = and i64 %6, 31
  %8 = shl nuw nsw i64 1, %7
  %9 = lshr i64 %6, 5
  %10 = getelementptr inbounds nuw i8, ptr %0, i64 8
  %11 = getelementptr inbounds nuw [8 x i32], ptr %10, i64 0, i64 %9
  %12 = load i32, ptr %11, align 4, !tbaa !44
  %13 = zext i32 %12 to i64
  %14 = and i64 %8, %13
  %.not = icmp eq i64 %14, 0
  %15 = getelementptr inbounds nuw i8, ptr %0, i64 40
  br i1 %.not, label %16, label %29

16:                                               ; preds = %2
  %17 = load ptr, ptr %15, align 8, !tbaa !168
  %.not23 = icmp eq ptr %17, null
  br i1 %.not23, label %18, label %20

18:                                               ; preds = %16
  %19 = tail call ptr @xmalloc(i64 noundef 32) #27
  store ptr %19, ptr %15, align 8, !tbaa !168
  tail call void @oidtree_init(ptr noundef %19) #27
  br label %20

20:                                               ; preds = %18, %16
  %21 = getelementptr inbounds nuw i8, ptr %0, i64 64
  %22 = load ptr, ptr %21, align 8, !tbaa !68
  %23 = tail call i64 @strlen(ptr noundef nonnull dereferenceable(1) %22) #28
  call void @strbuf_add(ptr noundef nonnull %3, ptr noundef nonnull %22, i64 noundef %23) #27
  %24 = load ptr, ptr %15, align 8, !tbaa !168
  %25 = call i32 @for_each_file_in_obj_subdir(i32 noundef %5, ptr noundef nonnull %3, ptr noundef nonnull @append_loose_object, ptr noundef null, ptr noundef null, ptr noundef %24)
  %26 = load i32, ptr %11, align 4, !tbaa !44
  %27 = trunc nuw i64 %8 to i32
  %28 = or i32 %26, %27
  store i32 %28, ptr %11, align 4, !tbaa !44
  call void @strbuf_release(ptr noundef nonnull %3) #27
  br label %29

29:                                               ; preds = %2, %20
  %.0 = load ptr, ptr %15, align 8, !tbaa !168
  call void @llvm.lifetime.end.p0(i64 24, ptr nonnull %3) #27
  ret ptr %.0
}